; Function Attrs: mustprogress nofree nounwind uwtable
define hidden noundef zeroext i1 @_ZN9DwarfFile21MarkedDwarfFileReader12set_positionEl(ptr nocapture noundef nonnull align 8 dereferenceable(40) %0, i64 noundef %1) unnamed_addr #3 align 2 {
  %3 = icmp slt i64 %1, 0
  br i1 %3, label %10, label %4

4:                                                ; preds = %2
  %5 = getelementptr inbounds i8, ptr %0, i64 24
  store i64 %1, ptr %5, align 8
  %6 = getelementptr inbounds i8, ptr %0, i64 8
  %7 = load ptr, ptr %6, align 8
  %8 = tail call i32 @fseek(ptr noundef %7, i64 noundef %1, i32 noundef 0)
  %9 = icmp eq i32 %8, 0
  br label %10

10:                                               ; preds = %2, %4
  %.0 = phi i1 [ %9, %4 ], [ false, %2 ]
  ret i1 %.0
}